; Function Attrs: mustprogress uwtable
define hidden noundef i32 @_ZN4ncnn21Deconvolution_x86_avx16destroy_pipelineERKNS_6OptionE(ptr noundef nonnull align 8 captures(none) dereferenceable(592) %0, ptr noundef nonnull align 8 dereferenceable(64) %1) unnamed_addr #2 align 2 {
  %3 = getelementptr inbounds nuw i8, ptr %0, i64 504
  %4 = load ptr, ptr %3, align 8, !tbaa !37
  %.not = icmp eq ptr %4, null
  br i1 %.not, label %17, label %5

5:                                                ; preds = %2
  %6 = load ptr, ptr %4, align 8, !tbaa !4
  %7 = getelementptr inbounds nuw i8, ptr %6, i64 40
  %8 = load ptr, ptr %7, align 8
  %9 = tail call noundef i32 %8(ptr noundef nonnull align 8 dereferenceable(208) %4, ptr noundef nonnull align 8 dereferenceable(64) %1)
  %10 = load ptr, ptr %3, align 8, !tbaa !37
  %11 = icmp eq ptr %10, null
  br i1 %11, label %16, label %12

12:                                               ; preds = %5
  %13 = load ptr, ptr %10, align 8, !tbaa !4
  %14 = getelementptr inbounds nuw i8, ptr %13, i64 8
  %15 = load ptr, ptr %14, align 8
  tail call void %15(ptr noundef nonnull align 8 dereferenceable(208) %10) #10
  br label %16

16:                                               ; preds = %12, %5
  store ptr null, ptr %3, align 8, !tbaa !37
  br label %17

17:                                               ; preds = %16, %2
  %18 = getelementptr inbounds nuw i8, ptr %0, i64 512
  %19 = load ptr, ptr %18, align 8, !tbaa !49
  %.not6 = icmp eq ptr %19, null
  br i1 %.not6, label %32, label %20

20:                                               ; preds = %17
  %21 = load ptr, ptr %19, align 8, !tbaa !4
  %22 = getelementptr inbounds nuw i8, ptr %21, i64 40
  %23 = load ptr, ptr %22, align 8
  %24 = tail call noundef i32 %23(ptr noundef nonnull align 8 dereferenceable(208) %19, ptr noundef nonnull align 8 dereferenceable(64) %1)
  %25 = load ptr, ptr %18, align 8, !tbaa !49
  %26 = icmp eq ptr %25, null
  br i1 %26, label %31, label %27

27:                                               ; preds = %20
  %28 = load ptr, ptr %25, align 8, !tbaa !4
  %29 = getelementptr inbounds nuw i8, ptr %28, i64 8
  %30 = load ptr, ptr %29, align 8
  tail call void %30(ptr noundef nonnull align 8 dereferenceable(208) %25) #10
  br label %31

31:                                               ; preds = %27, %20
  store ptr null, ptr %18, align 8, !tbaa !49
  br label %32

32:                                               ; preds = %31, %17
  ret i32 0
}